; Function Attrs: mustprogress nounwind uwtable
define hidden noundef ptr @_ZN14LoadVectorNode4makeEiP4NodeS1_S1_PK7TypePtrj9BasicTypeN8LoadNode17ControlDependencyE(i32 noundef %0, ptr noundef %1, ptr noundef %2, ptr noundef %3, ptr nocapture noundef readnone %4, i32 noundef %5, i8 noundef zeroext %6, i32 noundef %7) local_unnamed_addr #1 align 2 {
  %9 = zext i8 %6 to i64
  %10 = getelementptr inbounds [20 x ptr], ptr @_ZN4Type17_const_basic_typeE, i64 0, i64 %9
  %11 = load ptr, ptr %10, align 8
  %12 = tail call noundef ptr @_ZN8TypeVect4makeEPK4Typejb(ptr noundef %11, i32 noundef %5, i1 noundef zeroext false) #8
  %13 = tail call align 8 ptr @llvm.threadlocal.address.p0(ptr align 8 @_ZN6Thread12_thr_currentE)
  %14 = load ptr, ptr %13, align 8
  %15 = getelementptr inbounds i8, ptr %14, i64 1808
  %16 = load ptr, ptr %15, align 8
  %17 = getelementptr inbounds i8, ptr %16, i64 128
  %18 = load ptr, ptr %17, align 8
  %19 = getelementptr inbounds i8, ptr %18, i64 728
  %20 = load ptr, ptr %19, align 8
  %21 = getelementptr inbounds i8, ptr %20, i64 40
  %22 = load ptr, ptr %21, align 8
  %23 = getelementptr inbounds i8, ptr %20, i64 32
  %24 = load ptr, ptr %23, align 8
  %25 = ptrtoint ptr %22 to i64
  %26 = ptrtoint ptr %24 to i64
  %27 = sub i64 %25, %26
  %.not.i.i.i = icmp ult i64 %27, 72
  br i1 %.not.i.i.i, label %30, label %28

28:                                               ; preds = %8
  %29 = getelementptr inbounds i8, ptr %24, i64 72
  store ptr %29, ptr %23, align 8
  br label %_ZN4NodenwEm.exit

30:                                               ; preds = %8
  %31 = tail call noundef ptr @_ZN5Arena4growEmN17AllocFailStrategy13AllocFailEnumE(ptr noundef nonnull align 8 dereferenceable(48) %20, i64 noundef 72, i32 noundef 0) #8
  br label %_ZN4NodenwEm.exit

_ZN4NodenwEm.exit:                                ; preds = %28, %30
  %.0.i.i.i = phi ptr [ %24, %28 ], [ %31, %30 ]
  %32 = icmp eq ptr %.0.i.i.i, null
  br i1 %32, label %39, label %33

33:                                               ; preds = %_ZN4NodenwEm.exit
  tail call void @_ZN4NodeC2EPS_S0_S0_(ptr noundef nonnull align 8 dereferenceable(52) %.0.i.i.i, ptr noundef %1, ptr noundef %2, ptr noundef %3) #8
  %34 = getelementptr inbounds i8, ptr %.0.i.i.i, i64 52
  %35 = getelementptr inbounds i8, ptr %.0.i.i.i, i64 44
  store i32 256, ptr %34, align 4
  %36 = getelementptr inbounds i8, ptr %.0.i.i.i, i64 56
  store i32 %7, ptr %36, align 8
  %37 = getelementptr inbounds i8, ptr %.0.i.i.i, i64 60
  store i32 0, ptr %37, align 4
  %38 = getelementptr inbounds i8, ptr %.0.i.i.i, i64 64
  store ptr %12, ptr %38, align 8
  store ptr getelementptr inbounds inrange(-16, 232) (i8, ptr @_ZTV14LoadVectorNode, i64 16), ptr %.0.i.i.i, align 8
  store i32 112, ptr %35, align 4
  br label %39

39:                                               ; preds = %33, %_ZN4NodenwEm.exit
  ret ptr %.0.i.i.i
}